target datalayout = "e-m:e-p270:32:32-p271:32:32-p272:64:64-i64:64-i128:128-f80:128-n8:16:32:64-S128"
target triple = "x86_64-pc-linux-gnu"

%struct.ossl_store_loader_st = type { ptr, ptr, ptr, ptr, ptr, ptr, ptr, ptr, ptr, ptr, ptr, ptr, ptr, i32, ptr, ptr, %struct.CRYPTO_REF_COUNT, ptr, ptr, ptr, ptr, ptr, ptr, ptr, ptr, ptr, ptr }
%struct.CRYPTO_REF_COUNT = type { i32 }

@.str = private unnamed_addr constant [41 x i8] c"../openssl/crypto/store/store_register.c\00", align 1
@.str.2 = private unnamed_addr constant [10 x i8] c"scheme=%s\00", align 1
@registry_init = internal global i32 0, align 4
@do_registry_init_ossl_ret_ = internal global i32 0, align 4
@registry_lock = internal global ptr null, align 8
@loader_register = internal global ptr null, align 8
@__func__.ossl_store_unregister_loader_int = private unnamed_addr constant [33 x i8] c"ossl_store_unregister_loader_int\00", align 1

; Function Attrs: inlinehint nounwind uwtable
define internal ptr @lh_OSSL_STORE_LOADER_new(ptr noundef %0, ptr noundef %1) #4 {
  %3 = alloca ptr, align 8
  %4 = alloca ptr, align 8
  store ptr %0, ptr %3, align 8, !tbaa !18
  store ptr %1, ptr %4, align 8, !tbaa !18
  %5 = load ptr, ptr %3, align 8, !tbaa !18
  %6 = load ptr, ptr %4, align 8, !tbaa !18
  %7 = call ptr @OPENSSL_LH_new(ptr noundef %5, ptr noundef %6)
  %8 = call ptr @OPENSSL_LH_set_thunks(ptr noundef %7, ptr noundef @lh_OSSL_STORE_LOADER_hfn_thunk, ptr noundef @lh_OSSL_STORE_LOADER_cfn_thunk, ptr noundef @lh_OSSL_STORE_LOADER_doall_thunk, ptr noundef @lh_OSSL_STORE_LOADER_doall_arg_thunk)
  ret ptr %8
}

; Function Attrs: inlinehint nounwind uwtable
define internal ptr @lh_OSSL_STORE_LOADER_delete(ptr noundef %0, ptr noundef %1) #4 {
  %3 = alloca ptr, align 8
  %4 = alloca ptr, align 8
  store ptr %0, ptr %3, align 8, !tbaa !33
  store ptr %1, ptr %4, align 8, !tbaa !10
  %5 = load ptr, ptr %3, align 8, !tbaa !33
  %6 = load ptr, ptr %4, align 8, !tbaa !10
  %7 = call ptr @OPENSSL_LH_delete(ptr noundef %5, ptr noundef %6)
  ret ptr %7
}

; Function Attrs: nounwind uwtable
define internal i32 @ossl_store_register_init() #0 {
  %1 = load ptr, ptr @loader_register, align 8, !tbaa !33
  %2 = icmp eq ptr %1, null
  br i1 %2, label %3, label %5

3:                                                ; preds = %0
  %4 = call ptr @lh_OSSL_STORE_LOADER_new(ptr noundef @store_loader_hash, ptr noundef @store_loader_cmp)
  store ptr %4, ptr @loader_register, align 8, !tbaa !33
  br label %5

5:                                                ; preds = %3, %0
  %6 = load ptr, ptr @loader_register, align 8, !tbaa !33
  %7 = icmp ne ptr %6, null
  %8 = zext i1 %7 to i32
  ret i32 %8
}

; Function Attrs: nounwind uwtable
define ptr @ossl_store_unregister_loader_int(ptr noundef %0) #0 {
  %2 = alloca ptr, align 8
  %3 = alloca ptr, align 8
  %4 = alloca %struct.ossl_store_loader_st, align 8
  %5 = alloca ptr, align 8
  %6 = alloca i32, align 4
  store ptr %0, ptr %3, align 8, !tbaa !8
  call void @llvm.lifetime.start.p0(i64 216, ptr %4) #5
  call void @llvm.lifetime.start.p0(i64 8, ptr %5) #5
  store ptr null, ptr %5, align 8, !tbaa !10
  %7 = load ptr, ptr %3, align 8, !tbaa !8
  %8 = getelementptr inbounds nuw %struct.ossl_store_loader_st, ptr %4, i32 0, i32 0
  store ptr %7, ptr %8, align 8, !tbaa !17
  %9 = getelementptr inbounds nuw %struct.ossl_store_loader_st, ptr %4, i32 0, i32 2
  store ptr null, ptr %9, align 8, !tbaa !19
  %10 = getelementptr inbounds nuw %struct.ossl_store_loader_st, ptr %4, i32 0, i32 7
  store ptr null, ptr %10, align 8, !tbaa !25
  %11 = getelementptr inbounds nuw %struct.ossl_store_loader_st, ptr %4, i32 0, i32 8
  store ptr null, ptr %11, align 8, !tbaa !26
  %12 = getelementptr inbounds nuw %struct.ossl_store_loader_st, ptr %4, i32 0, i32 10
  store ptr null, ptr %12, align 8, !tbaa !28
  %13 = call i32 @CRYPTO_THREAD_run_once(ptr noundef @registry_init, ptr noundef @do_registry_init_ossl_)
  %14 = icmp ne i32 %13, 0
  br i1 %14, label %15, label %18

15:                                               ; preds = %1
  %16 = load i32, ptr @do_registry_init_ossl_ret_, align 4, !tbaa !29
  %17 = icmp ne i32 %16, 0
  br i1 %17, label %20, label %19

18:                                               ; preds = %1
  br i1 false, label %20, label %19

19:                                               ; preds = %18, %15
  call void @ERR_new()
  call void @ERR_set_debug(ptr noundef @.str, i32 noundef 258, ptr noundef @__func__.ossl_store_unregister_loader_int)
  call void (i32, i32, ptr, ...) @ERR_set_error(i32 noundef 44, i32 noundef 524303, ptr noundef null)
  store ptr null, ptr %2, align 8
  store i32 1, ptr %6, align 4
  br label %40

20:                                               ; preds = %18, %15
  %21 = load ptr, ptr @registry_lock, align 8, !tbaa !18
  %22 = call i32 @CRYPTO_THREAD_write_lock(ptr noundef %21)
  %23 = icmp ne i32 %22, 0
  br i1 %23, label %25, label %24

24:                                               ; preds = %20
  store ptr null, ptr %2, align 8
  store i32 1, ptr %6, align 4
  br label %40

25:                                               ; preds = %20
  %26 = call i32 @ossl_store_register_init()
  %27 = icmp ne i32 %26, 0
  br i1 %27, label %29, label %28

28:                                               ; preds = %25
  call void @ERR_new()
  call void @ERR_set_debug(ptr noundef @.str, i32 noundef 265, ptr noundef @__func__.ossl_store_unregister_loader_int)
  call void (i32, i32, ptr, ...) @ERR_set_error(i32 noundef 44, i32 noundef 786691, ptr noundef null)
  br label %36

29:                                               ; preds = %25
  %30 = load ptr, ptr @loader_register, align 8, !tbaa !33
  %31 = call ptr @lh_OSSL_STORE_LOADER_delete(ptr noundef %30, ptr noundef %4)
  store ptr %31, ptr %5, align 8, !tbaa !10
  %32 = icmp eq ptr %31, null
  br i1 %32, label %33, label %35

33:                                               ; preds = %29
  call void @ERR_new()
  call void @ERR_set_debug(ptr noundef @.str, i32 noundef 268, ptr noundef @__func__.ossl_store_unregister_loader_int)
  %34 = load ptr, ptr %3, align 8, !tbaa !8
  call void (i32, i32, ptr, ...) @ERR_set_error(i32 noundef 44, i32 noundef 105, ptr noundef @.str.2, ptr noundef %34)
  br label %35

35:                                               ; preds = %33, %29
  br label %36

36:                                               ; preds = %35, %28
  %37 = load ptr, ptr @registry_lock, align 8, !tbaa !18
  %38 = call i32 @CRYPTO_THREAD_unlock(ptr noundef %37)
  %39 = load ptr, ptr %5, align 8, !tbaa !10
  store ptr %39, ptr %2, align 8
  store i32 1, ptr %6, align 4
  br label %40

40:                                               ; preds = %36, %24, %19
  call void @llvm.lifetime.end.p0(i64 8, ptr %5) #5
  call void @llvm.lifetime.end.p0(i64 216, ptr %4) #5
  %41 = load ptr, ptr %2, align 8
  ret ptr %41
}