; Function Attrs: nounwind uwtable
define ptr @ossl_store_unregister_loader_int(ptr noundef %0) local_unnamed_addr #0 {
  %2 = alloca %struct.ossl_store_loader_st, align 8
  call void @llvm.lifetime.start.p0(i64 216, ptr nonnull %2) #9
  store ptr %0, ptr %2, align 8, !tbaa !13
  %3 = getelementptr inbounds nuw i8, ptr %2, i64 16
  store ptr null, ptr %3, align 8, !tbaa !14
  %4 = getelementptr inbounds nuw i8, ptr %2, i64 56
  %5 = getelementptr inbounds nuw i8, ptr %2, i64 80
  store ptr null, ptr %5, align 8, !tbaa !23
  call void @llvm.memset.p0.i64(ptr noundef nonnull align 8 dereferenceable(16) %4, i8 0, i64 16, i1 false)
  %6 = tail call i32 @CRYPTO_THREAD_run_once(ptr noundef nonnull @registry_init, ptr noundef nonnull @do_registry_init_ossl_) #9
  %7 = icmp ne i32 %6, 0
  %8 = load i32, ptr @do_registry_init_ossl_ret_, align 4
  %9 = icmp ne i32 %8, 0
  %or.cond = select i1 %7, i1 %9, i1 false
  br i1 %or.cond, label %11, label %10

10:                                               ; preds = %1
  tail call void @ERR_new() #9
  tail call void @ERR_set_debug(ptr noundef nonnull @.str, i32 noundef 258, ptr noundef nonnull @__func__.ossl_store_unregister_loader_int) #9
  tail call void (i32, i32, ptr, ...) @ERR_set_error(i32 noundef 44, i32 noundef 524303, ptr noundef null) #9
  br label %27

11:                                               ; preds = %1
  %12 = load ptr, ptr @registry_lock, align 8, !tbaa !27
  %13 = tail call i32 @CRYPTO_THREAD_write_lock(ptr noundef %12) #9
  %.not = icmp eq i32 %13, 0
  br i1 %.not, label %27, label %14

14:                                               ; preds = %11
  %15 = load ptr, ptr @loader_register, align 8, !tbaa !28
  %16 = icmp eq ptr %15, null
  br i1 %16, label %ossl_store_register_init.exit, label %ossl_store_register_init.exit.thread

ossl_store_register_init.exit:                    ; preds = %14
  %17 = tail call ptr @OPENSSL_LH_new(ptr noundef nonnull @store_loader_hash, ptr noundef nonnull @store_loader_cmp) #9
  %18 = tail call ptr @OPENSSL_LH_set_thunks(ptr noundef %17, ptr noundef nonnull @lh_OSSL_STORE_LOADER_hfn_thunk, ptr noundef nonnull @lh_OSSL_STORE_LOADER_cfn_thunk, ptr noundef nonnull @lh_OSSL_STORE_LOADER_doall_thunk, ptr noundef nonnull @lh_OSSL_STORE_LOADER_doall_arg_thunk) #9
  store ptr %18, ptr @loader_register, align 8, !tbaa !28
  %.not9 = icmp eq ptr %18, null
  br i1 %.not9, label %19, label %ossl_store_register_init.exit.thread

19:                                               ; preds = %ossl_store_register_init.exit
  tail call void @ERR_new() #9
  tail call void @ERR_set_debug(ptr noundef nonnull @.str, i32 noundef 265, ptr noundef nonnull @__func__.ossl_store_unregister_loader_int) #9
  tail call void (i32, i32, ptr, ...) @ERR_set_error(i32 noundef 44, i32 noundef 786691, ptr noundef null) #9
  br label %24

ossl_store_register_init.exit.thread:             ; preds = %14, %ossl_store_register_init.exit
  %20 = phi ptr [ %15, %14 ], [ %18, %ossl_store_register_init.exit ]
  %21 = call ptr @OPENSSL_LH_delete(ptr noundef nonnull %20, ptr noundef nonnull %2) #9
  %22 = icmp eq ptr %21, null
  br i1 %22, label %23, label %24

23:                                               ; preds = %ossl_store_register_init.exit.thread
  call void @ERR_new() #9
  call void @ERR_set_debug(ptr noundef nonnull @.str, i32 noundef 268, ptr noundef nonnull @__func__.ossl_store_unregister_loader_int) #9
  call void (i32, i32, ptr, ...) @ERR_set_error(i32 noundef 44, i32 noundef 105, ptr noundef nonnull @.str.2, ptr noundef %0) #9
  br label %24

24:                                               ; preds = %ossl_store_register_init.exit.thread, %23, %19
  %.0 = phi ptr [ null, %23 ], [ %21, %ossl_store_register_init.exit.thread ], [ null, %19 ]
  %25 = load ptr, ptr @registry_lock, align 8, !tbaa !27
  %26 = call i32 @CRYPTO_THREAD_unlock(ptr noundef %25) #9
  br label %27

27:                                               ; preds = %11, %24, %10
  %.05 = phi ptr [ %.0, %24 ], [ null, %10 ], [ null, %11 ]
  call void @llvm.lifetime.end.p0(i64 216, ptr nonnull %2) #9
  ret ptr %.05
}